target datalayout = "e-m:e-p270:32:32-p271:32:32-p272:64:64-i64:64-i128:128-f80:128-n8:16:32:64-S128"
target triple = "x86_64-pc-linux-gnu"

%struct._object = type { %union.anon, ptr }
%union.anon = type { i64 }
%struct._typeobject = type { %struct.PyVarObject, ptr, i64, i64, ptr, i64, ptr, ptr, ptr, ptr, ptr, ptr, ptr, ptr, ptr, ptr, ptr, ptr, ptr, i64, ptr, ptr, ptr, ptr, i64, ptr, ptr, ptr, ptr, ptr, ptr, ptr, ptr, ptr, i64, ptr, ptr, ptr, ptr, ptr, ptr, ptr, ptr, ptr, ptr, ptr, i32, ptr, ptr, i8, i16 }
%struct.PyVarObject = type { %struct._object, i64 }

@.str.3 = private unnamed_addr constant [8 x i8] c"strcoll\00", align 1
@.str.15 = private unnamed_addr constant [11 x i8] c"argument 2\00", align 1
@.str.38 = private unnamed_addr constant [11 x i8] c"argument 1\00", align 1
@.str.39 = private unnamed_addr constant [4 x i8] c"str\00", align 1

; Function Attrs: nounwind uwtable
define internal ptr @_locale_strcoll_impl(ptr noundef %0, ptr noundef %1, ptr noundef %2) #0 {
  %4 = alloca ptr, align 8
  %5 = alloca ptr, align 8
  %6 = alloca ptr, align 8
  %7 = alloca ptr, align 8
  %8 = alloca ptr, align 8
  %9 = alloca ptr, align 8
  store ptr %0, ptr %4, align 8, !tbaa !4
  store ptr %1, ptr %5, align 8, !tbaa !4
  store ptr %2, ptr %6, align 8, !tbaa !4
  call void @llvm.lifetime.start.p0(i64 8, ptr %7) #9
  store ptr null, ptr %7, align 8, !tbaa !4
  call void @llvm.lifetime.start.p0(i64 8, ptr %8) #9
  store ptr null, ptr %8, align 8, !tbaa !58
  call void @llvm.lifetime.start.p0(i64 8, ptr %9) #9
  store ptr null, ptr %9, align 8, !tbaa !58
  %10 = load ptr, ptr %5, align 8, !tbaa !4
  %11 = call ptr @PyUnicode_AsWideCharString(ptr noundef %10, ptr noundef null)
  store ptr %11, ptr %8, align 8, !tbaa !58
  %12 = load ptr, ptr %8, align 8, !tbaa !58
  %13 = icmp eq ptr %12, null
  br i1 %13, label %14, label %15

14:                                               ; preds = %3
  br label %27

15:                                               ; preds = %3
  %16 = load ptr, ptr %6, align 8, !tbaa !4
  %17 = call ptr @PyUnicode_AsWideCharString(ptr noundef %16, ptr noundef null)
  store ptr %17, ptr %9, align 8, !tbaa !58
  %18 = load ptr, ptr %9, align 8, !tbaa !58
  %19 = icmp eq ptr %18, null
  br i1 %19, label %20, label %21

20:                                               ; preds = %15
  br label %27

21:                                               ; preds = %15
  %22 = load ptr, ptr %8, align 8, !tbaa !58
  %23 = load ptr, ptr %9, align 8, !tbaa !58
  %24 = call i32 @wcscoll(ptr noundef %22, ptr noundef %23) #9
  %25 = sext i32 %24 to i64
  %26 = call ptr @PyLong_FromLong(i64 noundef %25)
  store ptr %26, ptr %7, align 8, !tbaa !4
  br label %27

27:                                               ; preds = %21, %20, %14
  %28 = load ptr, ptr %8, align 8, !tbaa !58
  %29 = icmp ne ptr %28, null
  br i1 %29, label %30, label %32

30:                                               ; preds = %27
  %31 = load ptr, ptr %8, align 8, !tbaa !58
  call void @PyMem_Free(ptr noundef %31)
  br label %32

32:                                               ; preds = %30, %27
  %33 = load ptr, ptr %9, align 8, !tbaa !58
  %34 = icmp ne ptr %33, null
  br i1 %34, label %35, label %37

35:                                               ; preds = %32
  %36 = load ptr, ptr %9, align 8, !tbaa !58
  call void @PyMem_Free(ptr noundef %36)
  br label %37

37:                                               ; preds = %35, %32
  %38 = load ptr, ptr %7, align 8, !tbaa !4
  call void @llvm.lifetime.end.p0(i64 8, ptr %9) #9
  call void @llvm.lifetime.end.p0(i64 8, ptr %8) #9
  call void @llvm.lifetime.end.p0(i64 8, ptr %7) #9
  ret ptr %38
}

; Function Attrs: inlinehint nounwind uwtable
define internal i32 @PyType_HasFeature(ptr noundef %0, i64 noundef %1) #3 {
  %3 = alloca ptr, align 8
  %4 = alloca i64, align 8
  %5 = alloca i64, align 8
  store ptr %0, ptr %3, align 8, !tbaa !22
  store i64 %1, ptr %4, align 8, !tbaa !18
  call void @llvm.lifetime.start.p0(i64 8, ptr %5) #9
  %6 = load ptr, ptr %3, align 8, !tbaa !22
  %7 = getelementptr inbounds nuw %struct._typeobject, ptr %6, i32 0, i32 19
  %8 = load i64, ptr %7, align 8, !tbaa !24
  store i64 %8, ptr %5, align 8, !tbaa !18
  %9 = load i64, ptr %5, align 8, !tbaa !18
  %10 = load i64, ptr %4, align 8, !tbaa !18
  %11 = and i64 %9, %10
  %12 = icmp ne i64 %11, 0
  %13 = zext i1 %12 to i32
  call void @llvm.lifetime.end.p0(i64 8, ptr %5) #9
  ret i32 %13
}

; Function Attrs: inlinehint nounwind uwtable
define internal ptr @_Py_TYPE(ptr noundef %0) #3 {
  %2 = alloca ptr, align 8
  store ptr %0, ptr %2, align 8, !tbaa !4
  %3 = load ptr, ptr %2, align 8, !tbaa !4
  %4 = getelementptr inbounds nuw %struct._object, ptr %3, i32 0, i32 1
  %5 = load ptr, ptr %4, align 8, !tbaa !32
  ret ptr %5
}

; Function Attrs: nounwind uwtable
define internal ptr @_locale_strcoll(ptr noundef %0, ptr noundef %1, i64 noundef %2) #0 {
  %4 = alloca ptr, align 8
  %5 = alloca ptr, align 8
  %6 = alloca i64, align 8
  %7 = alloca ptr, align 8
  %8 = alloca ptr, align 8
  %9 = alloca ptr, align 8
  store ptr %0, ptr %4, align 8, !tbaa !4
  store ptr %1, ptr %5, align 8, !tbaa !16
  store i64 %2, ptr %6, align 8, !tbaa !18
  call void @llvm.lifetime.start.p0(i64 8, ptr %7) #9
  store ptr null, ptr %7, align 8, !tbaa !4
  call void @llvm.lifetime.start.p0(i64 8, ptr %8) #9
  call void @llvm.lifetime.start.p0(i64 8, ptr %9) #9
  %10 = load i64, ptr %6, align 8, !tbaa !18
  %11 = icmp sle i64 2, %10
  br i1 %11, label %12, label %15

12:                                               ; preds = %3
  %13 = load i64, ptr %6, align 8, !tbaa !18
  %14 = icmp sle i64 %13, 2
  br i1 %14, label %20, label %15

15:                                               ; preds = %12, %3
  %16 = load i64, ptr %6, align 8, !tbaa !18
  %17 = call i32 @_PyArg_CheckPositional(ptr noundef @.str.3, i64 noundef %16, i64 noundef 2, i64 noundef 2)
  %18 = icmp ne i32 %17, 0
  br i1 %18, label %20, label %19

19:                                               ; preds = %15
  br label %53

20:                                               ; preds = %15, %12
  %21 = load ptr, ptr %5, align 8, !tbaa !16
  %22 = getelementptr ptr, ptr %21, i64 0
  %23 = load ptr, ptr %22, align 8, !tbaa !4
  %24 = call ptr @_Py_TYPE(ptr noundef %23)
  %25 = call i32 @PyType_HasFeature(ptr noundef %24, i64 noundef 268435456)
  %26 = icmp ne i32 %25, 0
  br i1 %26, label %31, label %27

27:                                               ; preds = %20
  %28 = load ptr, ptr %5, align 8, !tbaa !16
  %29 = getelementptr ptr, ptr %28, i64 0
  %30 = load ptr, ptr %29, align 8, !tbaa !4
  call void @_PyArg_BadArgument(ptr noundef @.str.3, ptr noundef @.str.38, ptr noundef @.str.39, ptr noundef %30)
  br label %53

31:                                               ; preds = %20
  %32 = load ptr, ptr %5, align 8, !tbaa !16
  %33 = getelementptr ptr, ptr %32, i64 0
  %34 = load ptr, ptr %33, align 8, !tbaa !4
  store ptr %34, ptr %8, align 8, !tbaa !4
  %35 = load ptr, ptr %5, align 8, !tbaa !16
  %36 = getelementptr ptr, ptr %35, i64 1
  %37 = load ptr, ptr %36, align 8, !tbaa !4
  %38 = call ptr @_Py_TYPE(ptr noundef %37)
  %39 = call i32 @PyType_HasFeature(ptr noundef %38, i64 noundef 268435456)
  %40 = icmp ne i32 %39, 0
  br i1 %40, label %45, label %41

41:                                               ; preds = %31
  %42 = load ptr, ptr %5, align 8, !tbaa !16
  %43 = getelementptr ptr, ptr %42, i64 1
  %44 = load ptr, ptr %43, align 8, !tbaa !4
  call void @_PyArg_BadArgument(ptr noundef @.str.3, ptr noundef @.str.15, ptr noundef @.str.39, ptr noundef %44)
  br label %53

45:                                               ; preds = %31
  %46 = load ptr, ptr %5, align 8, !tbaa !16
  %47 = getelementptr ptr, ptr %46, i64 1
  %48 = load ptr, ptr %47, align 8, !tbaa !4
  store ptr %48, ptr %9, align 8, !tbaa !4
  %49 = load ptr, ptr %4, align 8, !tbaa !4
  %50 = load ptr, ptr %8, align 8, !tbaa !4
  %51 = load ptr, ptr %9, align 8, !tbaa !4
  %52 = call ptr @_locale_strcoll_impl(ptr noundef %49, ptr noundef %50, ptr noundef %51)
  store ptr %52, ptr %7, align 8, !tbaa !4
  br label %53

53:                                               ; preds = %45, %41, %27, %19
  %54 = load ptr, ptr %7, align 8, !tbaa !4
  call void @llvm.lifetime.end.p0(i64 8, ptr %9) #9
  call void @llvm.lifetime.end.p0(i64 8, ptr %8) #9
  call void @llvm.lifetime.end.p0(i64 8, ptr %7) #9
  ret ptr %54
}