; Function Attrs: nounwind uwtable
define internal ptr @_locale_strcoll(ptr readnone captures(none) %0, ptr noundef readonly captures(none) %1, i64 noundef %2) #0 {
  %or.cond = icmp eq i64 %2, 2
  br i1 %or.cond, label %6, label %4

4:                                                ; preds = %3
  %5 = tail call i32 @_PyArg_CheckPositional(ptr noundef nonnull @.str.3, i64 noundef %2, i64 noundef 2, i64 noundef 2) #8
  %.not = icmp eq i32 %5, 0
  br i1 %.not, label %_locale_strcoll_impl.exit, label %6

6:                                                ; preds = %3, %4
  %7 = load ptr, ptr %1, align 8, !tbaa !10
  %8 = getelementptr i8, ptr %7, i64 8
  %.val = load ptr, ptr %8, align 8, !tbaa !12
  %9 = getelementptr i8, ptr %.val, i64 168
  %.val16 = load i64, ptr %9, align 8, !tbaa !15
  %10 = and i64 %.val16, 268435456
  %.not13 = icmp eq i64 %10, 0
  br i1 %.not13, label %11, label %12

11:                                               ; preds = %6
  tail call void @_PyArg_BadArgument(ptr noundef nonnull @.str.3, ptr noundef nonnull @.str.38, ptr noundef nonnull @.str.39, ptr noundef nonnull %7) #8
  br label %_locale_strcoll_impl.exit

12:                                               ; preds = %6
  %13 = getelementptr i8, ptr %1, i64 8
  %14 = load ptr, ptr %13, align 8, !tbaa !10
  %15 = getelementptr i8, ptr %14, i64 8
  %.val15 = load ptr, ptr %15, align 8, !tbaa !12
  %16 = getelementptr i8, ptr %.val15, i64 168
  %.val17 = load i64, ptr %16, align 8, !tbaa !15
  %17 = and i64 %.val17, 268435456
  %.not14 = icmp eq i64 %17, 0
  br i1 %.not14, label %18, label %19

18:                                               ; preds = %12
  tail call void @_PyArg_BadArgument(ptr noundef nonnull @.str.3, ptr noundef nonnull @.str.15, ptr noundef nonnull @.str.39, ptr noundef nonnull %14) #8
  br label %_locale_strcoll_impl.exit

19:                                               ; preds = %12
  %20 = tail call ptr @PyUnicode_AsWideCharString(ptr noundef nonnull %7, ptr noundef null) #8
  %21 = icmp eq ptr %20, null
  br i1 %21, label %_locale_strcoll_impl.exit, label %22

22:                                               ; preds = %19
  %23 = tail call ptr @PyUnicode_AsWideCharString(ptr noundef nonnull %14, ptr noundef null) #8
  %24 = icmp eq ptr %23, null
  br i1 %24, label %.thread7.sink.split.i, label %25

25:                                               ; preds = %22
  %26 = tail call i32 @wcscoll(ptr noundef nonnull %20, ptr noundef nonnull %23) #8
  %27 = sext i32 %26 to i64
  %28 = tail call ptr @PyLong_FromLong(i64 noundef %27) #8
  tail call void @PyMem_Free(ptr noundef nonnull %20) #8
  br label %.thread7.sink.split.i

.thread7.sink.split.i:                            ; preds = %25, %22
  %.sink.i = phi ptr [ %23, %25 ], [ %20, %22 ]
  %.011411.ph.i = phi ptr [ %28, %25 ], [ null, %22 ]
  tail call void @PyMem_Free(ptr noundef nonnull %.sink.i) #8
  br label %_locale_strcoll_impl.exit

_locale_strcoll_impl.exit:                        ; preds = %.thread7.sink.split.i, %19, %4, %18, %11
  %.0 = phi ptr [ null, %18 ], [ null, %11 ], [ null, %4 ], [ null, %19 ], [ %.011411.ph.i, %.thread7.sink.split.i ]
  ret ptr %.0
}